
IR_remote.elf:     file format elf32-avr

Sections:
Idx Name          Size      VMA       LMA       File off  Algn
  0 .text         00000316  00000000  00000000  00000074  2**1
                  CONTENTS, ALLOC, LOAD, READONLY, CODE
  1 .data         00000000  00800060  00800060  0000038a  2**0
                  CONTENTS, ALLOC, LOAD, DATA
  2 .bss          0000000c  00800060  00800060  0000038a  2**0
                  ALLOC
  3 .comment      00000030  00000000  00000000  0000038a  2**0
                  CONTENTS, READONLY
  4 .note.gnu.avr.deviceinfo 0000003c  00000000  00000000  000003bc  2**2
                  CONTENTS, READONLY
  5 .debug_aranges 000000f0  00000000  00000000  000003f8  2**0
                  CONTENTS, READONLY, DEBUGGING
  6 .debug_info   00000eda  00000000  00000000  000004e8  2**0
                  CONTENTS, READONLY, DEBUGGING
  7 .debug_abbrev 000008da  00000000  00000000  000013c2  2**0
                  CONTENTS, READONLY, DEBUGGING
  8 .debug_line   00000925  00000000  00000000  00001c9c  2**0
                  CONTENTS, READONLY, DEBUGGING
  9 .debug_frame  000001bc  00000000  00000000  000025c4  2**2
                  CONTENTS, READONLY, DEBUGGING
 10 .debug_str    0000048e  00000000  00000000  00002780  2**0
                  CONTENTS, READONLY, DEBUGGING
 11 .debug_loc    0000085f  00000000  00000000  00002c0e  2**0
                  CONTENTS, READONLY, DEBUGGING
 12 .debug_ranges 000000a0  00000000  00000000  0000346d  2**0
                  CONTENTS, READONLY, DEBUGGING

Disassembly of section .text:

00000000 <__vectors>:
   0:	1c c0       	rjmp	.+56     	; 0x3a <__ctors_end>
   2:	36 c0       	rjmp	.+108    	; 0x70 <__bad_interrupt>
   4:	35 c0       	rjmp	.+106    	; 0x70 <__bad_interrupt>
   6:	34 c0       	rjmp	.+104    	; 0x70 <__bad_interrupt>
   8:	33 c0       	rjmp	.+102    	; 0x70 <__bad_interrupt>
   a:	32 c0       	rjmp	.+100    	; 0x70 <__bad_interrupt>
   c:	31 c0       	rjmp	.+98     	; 0x70 <__bad_interrupt>
   e:	30 c0       	rjmp	.+96     	; 0x70 <__bad_interrupt>
  10:	3d c0       	rjmp	.+122    	; 0x8c <__vector_8>
  12:	38 c1       	rjmp	.+624    	; 0x284 <__vector_9>
  14:	2d c0       	rjmp	.+90     	; 0x70 <__bad_interrupt>
  16:	2c c0       	rjmp	.+88     	; 0x70 <__bad_interrupt>
  18:	2b c0       	rjmp	.+86     	; 0x70 <__bad_interrupt>
  1a:	2a c0       	rjmp	.+84     	; 0x70 <__bad_interrupt>
  1c:	29 c0       	rjmp	.+82     	; 0x70 <__bad_interrupt>
  1e:	28 c0       	rjmp	.+80     	; 0x70 <__bad_interrupt>
  20:	27 c0       	rjmp	.+78     	; 0x70 <__bad_interrupt>
  22:	26 c0       	rjmp	.+76     	; 0x70 <__bad_interrupt>
  24:	25 c0       	rjmp	.+74     	; 0x70 <__bad_interrupt>
  26:	ce c0       	rjmp	.+412    	; 0x1c4 <show_num+0x6a>
  28:	d1 c0       	rjmp	.+418    	; 0x1cc <show_num+0x72>
  2a:	bc c0       	rjmp	.+376    	; 0x1a4 <show_num+0x4a>
  2c:	bd c0       	rjmp	.+378    	; 0x1a8 <show_num+0x4e>
  2e:	be c0       	rjmp	.+380    	; 0x1ac <show_num+0x52>
  30:	bf c0       	rjmp	.+382    	; 0x1b0 <show_num+0x56>
  32:	c0 c0       	rjmp	.+384    	; 0x1b4 <show_num+0x5a>
  34:	c1 c0       	rjmp	.+386    	; 0x1b8 <show_num+0x5e>
  36:	c2 c0       	rjmp	.+388    	; 0x1bc <show_num+0x62>
  38:	c3 c0       	rjmp	.+390    	; 0x1c0 <show_num+0x66>

0000003a <__ctors_end>:
  3a:	11 24       	eor	r1, r1
  3c:	1f be       	out	0x3f, r1	; 63
  3e:	cf e5       	ldi	r28, 0x5F	; 95
  40:	d4 e0       	ldi	r29, 0x04	; 4
  42:	de bf       	out	0x3e, r29	; 62
  44:	cd bf       	out	0x3d, r28	; 61

00000046 <__do_copy_data>:
  46:	10 e0       	ldi	r17, 0x00	; 0
  48:	a0 e6       	ldi	r26, 0x60	; 96
  4a:	b0 e0       	ldi	r27, 0x00	; 0
  4c:	e6 e1       	ldi	r30, 0x16	; 22
  4e:	f3 e0       	ldi	r31, 0x03	; 3
  50:	02 c0       	rjmp	.+4      	; 0x56 <__do_copy_data+0x10>
  52:	05 90       	lpm	r0, Z+
  54:	0d 92       	st	X+, r0
  56:	a0 36       	cpi	r26, 0x60	; 96
  58:	b1 07       	cpc	r27, r17
  5a:	d9 f7       	brne	.-10     	; 0x52 <__do_copy_data+0xc>

0000005c <__do_clear_bss>:
  5c:	20 e0       	ldi	r18, 0x00	; 0
  5e:	a0 e6       	ldi	r26, 0x60	; 96
  60:	b0 e0       	ldi	r27, 0x00	; 0
  62:	01 c0       	rjmp	.+2      	; 0x66 <.do_clear_bss_start>

00000064 <.do_clear_bss_loop>:
  64:	1d 92       	st	X+, r1

00000066 <.do_clear_bss_start>:
  66:	ac 36       	cpi	r26, 0x6C	; 108
  68:	b2 07       	cpc	r27, r18
  6a:	e1 f7       	brne	.-8      	; 0x64 <.do_clear_bss_loop>
  6c:	4b d1       	rcall	.+662    	; 0x304 <main>
  6e:	51 c1       	rjmp	.+674    	; 0x312 <_exit>

00000070 <__bad_interrupt>:
  70:	c7 cf       	rjmp	.-114    	; 0x0 <__vectors>

00000072 <init_ALARM_ISR>:
uint16_t tone_overfl_counter=0, alarm_pause_counter=0, ALARM_TIME = 10000;


void init_ALARM_ISR(){
	
	DDRD |= (1<<PD7);
  72:	8f 9a       	sbi	0x11, 7	; 17
	
	TCCR1A = 0x00;
  74:	1f bc       	out	0x2f, r1	; 47
	TCCR1B = 0x02;
  76:	82 e0       	ldi	r24, 0x02	; 2
  78:	8e bd       	out	0x2e, r24	; 46
	
	//TCCR1A = 0x03;
	//TCCR1B = 0x03;
	
	TIMSK |= (1<<TOIE1);
  7a:	89 b7       	in	r24, 0x39	; 57
  7c:	84 60       	ori	r24, 0x04	; 4
  7e:	89 bf       	out	0x39, r24	; 57
	
	
	TCNT1H = 0xFF;  // TIMER1 10us Interrupt
  80:	8f ef       	ldi	r24, 0xFF	; 255
  82:	8d bd       	out	0x2d, r24	; 45
	TCNT1L = 255-10;
  84:	85 ef       	ldi	r24, 0xF5	; 245
  86:	8c bd       	out	0x2c, r24	; 44
	
	sei();
  88:	78 94       	sei
  8a:	08 95       	ret

0000008c <__vector_8>:
}

ISR(TIMER1_OVF_vect){
  8c:	1f 92       	push	r1
  8e:	0f 92       	push	r0
  90:	0f b6       	in	r0, 0x3f	; 63
  92:	0f 92       	push	r0
  94:	11 24       	eor	r1, r1
  96:	2f 93       	push	r18
  98:	8f 93       	push	r24
  9a:	9f 93       	push	r25
	TCNT1H = 0xFF;
  9c:	8f ef       	ldi	r24, 0xFF	; 255
  9e:	8d bd       	out	0x2d, r24	; 45
	TCNT1L = 255-10;
  a0:	85 ef       	ldi	r24, 0xF5	; 245
  a2:	8c bd       	out	0x2c, r24	; 44
	//if(alarm_pause_counter<=ALARM_TIME){
		if(tone_overfl_counter<=ALARM_SOUND){
  a4:	80 91 62 00 	lds	r24, 0x0062	; 0x800062 <tone_overfl_counter>
  a8:	90 91 63 00 	lds	r25, 0x0063	; 0x800063 <tone_overfl_counter+0x1>
  ac:	85 3f       	cpi	r24, 0xF5	; 245
  ae:	21 e0       	ldi	r18, 0x01	; 1
  b0:	92 07       	cpc	r25, r18
  b2:	30 f4       	brcc	.+12     	; 0xc0 <__vector_8+0x34>
			tone_overfl_counter++;
  b4:	01 96       	adiw	r24, 0x01	; 1
  b6:	90 93 63 00 	sts	0x0063, r25	; 0x800063 <tone_overfl_counter+0x1>
  ba:	80 93 62 00 	sts	0x0062, r24	; 0x800062 <tone_overfl_counter>
  be:	07 c0       	rjmp	.+14     	; 0xce <__vector_8+0x42>
		}
		else{
			PORTD ^= (1<<PD7);
  c0:	82 b3       	in	r24, 0x12	; 18
  c2:	80 58       	subi	r24, 0x80	; 128
  c4:	82 bb       	out	0x12, r24	; 18
			tone_overfl_counter = 0;
  c6:	10 92 63 00 	sts	0x0063, r1	; 0x800063 <tone_overfl_counter+0x1>
  ca:	10 92 62 00 	sts	0x0062, r1	; 0x800062 <tone_overfl_counter>
		}
		alarm_pause_counter++;
  ce:	80 91 60 00 	lds	r24, 0x0060	; 0x800060 <__data_end>
  d2:	90 91 61 00 	lds	r25, 0x0061	; 0x800061 <__data_end+0x1>
  d6:	01 96       	adiw	r24, 0x01	; 1
  d8:	90 93 61 00 	sts	0x0061, r25	; 0x800061 <__data_end+0x1>
  dc:	80 93 60 00 	sts	0x0060, r24	; 0x800060 <__data_end>
		if(ALARM_TIME==0)
			diff_alarm=-500;
		if(ALARM_TIME>10000)
			diff_alarm=500;
	} */
  e0:	9f 91       	pop	r25
  e2:	8f 91       	pop	r24
  e4:	2f 91       	pop	r18
  e6:	0f 90       	pop	r0
  e8:	0f be       	out	0x3f, r0	; 63
  ea:	0f 90       	pop	r0
  ec:	1f 90       	pop	r1
  ee:	18 95       	reti

000000f0 <init_DISPLAY>:
 */ 

#include "display_7_seg.h"

void init_DISPLAY(){
	DDRD |= 0x0F;
  f0:	81 b3       	in	r24, 0x11	; 17
  f2:	8f 60       	ori	r24, 0x0F	; 15
  f4:	81 bb       	out	0x11, r24	; 17
	PORTD &= 0xF0;
  f6:	82 b3       	in	r24, 0x12	; 18
  f8:	80 7f       	andi	r24, 0xF0	; 240
  fa:	82 bb       	out	0x12, r24	; 18
  fc:	08 95       	ret

000000fe <write_buffer>:
	_delay_ms(5);
}*/


void write_buffer(uint8_t buff_foo){
	PORTD &= ~(1<<PD1);
  fe:	91 98       	cbi	0x12, 1	; 18
 100:	27 e0       	ldi	r18, 0x07	; 7
 102:	30 e0       	ldi	r19, 0x00	; 0
	for(int8_t i=7;i>=0;i--){
		if((buff_foo &(1<<i)) == (1<<i)){
 104:	e1 e0       	ldi	r30, 0x01	; 1
 106:	f0 e0       	ldi	r31, 0x00	; 0
 108:	90 e0       	ldi	r25, 0x00	; 0
 10a:	af 01       	movw	r20, r30
 10c:	02 2e       	mov	r0, r18
 10e:	02 c0       	rjmp	.+4      	; 0x114 <write_buffer+0x16>
 110:	44 0f       	add	r20, r20
 112:	55 1f       	adc	r21, r21
 114:	0a 94       	dec	r0
 116:	e2 f7       	brpl	.-8      	; 0x110 <write_buffer+0x12>
 118:	bc 01       	movw	r22, r24
 11a:	64 23       	and	r22, r20
 11c:	75 23       	and	r23, r21
 11e:	46 17       	cp	r20, r22
 120:	57 07       	cpc	r21, r23
 122:	41 f4       	brne	.+16     	; 0x134 <write_buffer+0x36>
			PORTD |= (1<<PD0);
 124:	90 9a       	sbi	0x12, 0	; 18
	#else
		//round up by default
		__ticks_dc = (uint32_t)(ceil(fabs(__tmp)));
	#endif

	__builtin_avr_delay_cycles(__ticks_dc);
 126:	42 e0       	ldi	r20, 0x02	; 2
 128:	4a 95       	dec	r20
 12a:	f1 f7       	brne	.-4      	; 0x128 <write_buffer+0x2a>
 12c:	00 c0       	rjmp	.+0      	; 0x12e <write_buffer+0x30>
			_delay_us(1);
			PORTD |= (1<<PD1);
 12e:	91 9a       	sbi	0x12, 1	; 18
			PORTD &= ~(1<<PD1);
 130:	91 98       	cbi	0x12, 1	; 18
 132:	07 c0       	rjmp	.+14     	; 0x142 <write_buffer+0x44>
		}
		else{
			PORTD &= ~(1<<PD0);
 134:	90 98       	cbi	0x12, 0	; 18
 136:	42 e0       	ldi	r20, 0x02	; 2
 138:	4a 95       	dec	r20
 13a:	f1 f7       	brne	.-4      	; 0x138 <write_buffer+0x3a>
 13c:	00 c0       	rjmp	.+0      	; 0x13e <write_buffer+0x40>
			_delay_us(1);
			PORTD |= (1<<PD1);
 13e:	91 9a       	sbi	0x12, 1	; 18
			PORTD &= ~(1<<PD1);
 140:	91 98       	cbi	0x12, 1	; 18
 142:	21 50       	subi	r18, 0x01	; 1
 144:	31 09       	sbc	r19, r1
 146:	08 f7       	brcc	.-62     	; 0x10a <write_buffer+0xc>
		}
	}
}
 148:	08 95       	ret

0000014a <set_light_delay>:

void set_light_delay(uint16_t light_delay){
	PORTD &= ~(1<<PD2);
 14a:	92 98       	cbi	0x12, 2	; 18
	PORTD |= (1<<PD2);
 14c:	92 9a       	sbi	0x12, 2	; 18
 14e:	82 e0       	ldi	r24, 0x02	; 2
 150:	8a 95       	dec	r24
 152:	f1 f7       	brne	.-4      	; 0x150 <set_light_delay+0x6>
 154:	00 c0       	rjmp	.+0      	; 0x156 <set_light_delay+0xc>
	_delay_us(1);
	PORTD &= ~(1<<PD3);
 156:	93 98       	cbi	0x12, 3	; 18
 158:	08 95       	ret

0000015a <show_num>:
	}*/

	
}

void show_num(uint8_t stelle, uint8_t zahl){
 15a:	cf 93       	push	r28
 15c:	c6 2f       	mov	r28, r22
	PORTD |= (1<<PD3);
 15e:	93 9a       	sbi	0x12, 3	; 18

	switch(stelle){
 160:	82 30       	cpi	r24, 0x02	; 2
 162:	61 f0       	breq	.+24     	; 0x17c <show_num+0x22>
 164:	18 f4       	brcc	.+6      	; 0x16c <show_num+0x12>
 166:	81 30       	cpi	r24, 0x01	; 1
 168:	31 f0       	breq	.+12     	; 0x176 <show_num+0x1c>
 16a:	11 c0       	rjmp	.+34     	; 0x18e <show_num+0x34>
 16c:	83 30       	cpi	r24, 0x03	; 3
 16e:	49 f0       	breq	.+18     	; 0x182 <show_num+0x28>
 170:	84 30       	cpi	r24, 0x04	; 4
 172:	51 f0       	breq	.+20     	; 0x188 <show_num+0x2e>
 174:	0c c0       	rjmp	.+24     	; 0x18e <show_num+0x34>
		case 1:
		write_buffer(~0x08);
 176:	87 ef       	ldi	r24, 0xF7	; 247
 178:	c2 df       	rcall	.-124    	; 0xfe <write_buffer>
		break;
 17a:	0b c0       	rjmp	.+22     	; 0x192 <show_num+0x38>
		case 2:
		write_buffer(~0x04);
 17c:	8b ef       	ldi	r24, 0xFB	; 251
 17e:	bf df       	rcall	.-130    	; 0xfe <write_buffer>
		break;
 180:	08 c0       	rjmp	.+16     	; 0x192 <show_num+0x38>
		case 3:
		write_buffer(~0x02);
 182:	8d ef       	ldi	r24, 0xFD	; 253
 184:	bc df       	rcall	.-136    	; 0xfe <write_buffer>
		break;
 186:	05 c0       	rjmp	.+10     	; 0x192 <show_num+0x38>
		case 4:
		write_buffer(~0x01);
 188:	8e ef       	ldi	r24, 0xFE	; 254
 18a:	b9 df       	rcall	.-142    	; 0xfe <write_buffer>
		break;
 18c:	02 c0       	rjmp	.+4      	; 0x192 <show_num+0x38>
		default:
		write_buffer(~0x00);
 18e:	8f ef       	ldi	r24, 0xFF	; 255
 190:	b6 df       	rcall	.-148    	; 0xfe <write_buffer>
	}
	
	uint8_t zahl_temp = 0x00;
	uint16_t delay_light = 0;

	switch(zahl){
 192:	8c 2f       	mov	r24, r28
 194:	90 e0       	ldi	r25, 0x00	; 0
 196:	8a 30       	cpi	r24, 0x0A	; 10
 198:	91 05       	cpc	r25, r1
 19a:	b0 f4       	brcc	.+44     	; 0x1c8 <show_num+0x6e>
 19c:	fc 01       	movw	r30, r24
 19e:	ed 5e       	subi	r30, 0xED	; 237
 1a0:	ff 4f       	sbci	r31, 0xFF	; 255
 1a2:	09 94       	ijmp
		case 1:
		zahl_temp = ~((1<<1)|(1<<2));
		break;
		case 2:
		zahl_temp = ~((1<<0)|(1<<1)|(1<<4)|(1<<3)|(1<<6));
 1a4:	84 ea       	ldi	r24, 0xA4	; 164
 1a6:	13 c0       	rjmp	.+38     	; 0x1ce <show_num+0x74>
		break;
		case 3:
		zahl_temp = ~((1<<0)|(1<<1)|(1<<2)|(1<<3)|(1<<6));
 1a8:	80 eb       	ldi	r24, 0xB0	; 176
		break;
 1aa:	11 c0       	rjmp	.+34     	; 0x1ce <show_num+0x74>
		case 4:
		zahl_temp = ~((1<<1)|(1<<2)|(1<<5)|(1<<6));
 1ac:	89 e9       	ldi	r24, 0x99	; 153
		break;
 1ae:	0f c0       	rjmp	.+30     	; 0x1ce <show_num+0x74>
		case 5:
		zahl_temp = ~((1<<0)|(1<<2)|(1<<3)|(1<<5)|(1<<6));
 1b0:	82 e9       	ldi	r24, 0x92	; 146
		break;
 1b2:	0d c0       	rjmp	.+26     	; 0x1ce <show_num+0x74>
		case 6:
		zahl_temp = ~((1<<0)|(1<<2)|(1<<3)|(1<<4)|(1<<5)|(1<<6));
 1b4:	82 e8       	ldi	r24, 0x82	; 130
		break;
 1b6:	0b c0       	rjmp	.+22     	; 0x1ce <show_num+0x74>
		case 7:
		zahl_temp = ~((1<<0)|(1<<1)|(1<<2));
 1b8:	88 ef       	ldi	r24, 0xF8	; 248
		break;
 1ba:	09 c0       	rjmp	.+18     	; 0x1ce <show_num+0x74>
		case 8:
		zahl_temp = ~((1<<0)|(1<<1)|(1<<2)|(1<<3)|(1<<4)|(1<<5)|(1<<6));
 1bc:	80 e8       	ldi	r24, 0x80	; 128
		break;
 1be:	07 c0       	rjmp	.+14     	; 0x1ce <show_num+0x74>
		case 9:
		zahl_temp = ~((1<<0)|(1<<1)|(1<<2)|(1<<3)|(1<<5)|(1<<6));
 1c0:	80 e9       	ldi	r24, 0x90	; 144
		break;
 1c2:	05 c0       	rjmp	.+10     	; 0x1ce <show_num+0x74>
		case 0:
		zahl_temp = ~((1<<0)|(1<<1)|(1<<2)|(1<<3)|(1<<4)|(1<<5));
 1c4:	80 ec       	ldi	r24, 0xC0	; 192
		break;
 1c6:	03 c0       	rjmp	.+6      	; 0x1ce <show_num+0x74>
		default:
		zahl_temp = 0xFF;
 1c8:	8f ef       	ldi	r24, 0xFF	; 255
		break;
 1ca:	01 c0       	rjmp	.+2      	; 0x1ce <show_num+0x74>
	uint8_t zahl_temp = 0x00;
	uint16_t delay_light = 0;

	switch(zahl){
		case 1:
		zahl_temp = ~((1<<1)|(1<<2));
 1cc:	89 ef       	ldi	r24, 0xF9	; 249
		break;
		default:
		zahl_temp = 0xFF;
		break;
	}
	write_buffer(zahl_temp);
 1ce:	97 df       	rcall	.-210    	; 0xfe <write_buffer>
	set_light_delay(delay_light); //delay sinnlos, da SR an bis zum nächsten zeitwechsel
 1d0:	80 e0       	ldi	r24, 0x00	; 0
 1d2:	90 e0       	ldi	r25, 0x00	; 0
 1d4:	ba df       	rcall	.-140    	; 0x14a <set_light_delay>
}
 1d6:	cf 91       	pop	r28
 1d8:	08 95       	ret

000001da <show_time>:

void show_time(uint8_t min, uint8_t sek){
	if(min/10!=0){
 1da:	8a 30       	cpi	r24, 0x0A	; 10
 1dc:	50 f0       	brcs	.+20     	; 0x1f2 <show_time+0x18>
		min_zehn = min/10;
 1de:	9d ec       	ldi	r25, 0xCD	; 205
 1e0:	89 9f       	mul	r24, r25
 1e2:	91 2d       	mov	r25, r1
 1e4:	11 24       	eor	r1, r1
 1e6:	96 95       	lsr	r25
 1e8:	96 95       	lsr	r25
 1ea:	96 95       	lsr	r25
 1ec:	90 93 67 00 	sts	0x0067, r25	; 0x800067 <min_zehn>
 1f0:	03 c0       	rjmp	.+6      	; 0x1f8 <show_time+0x1e>
	}
	else{
		min_zehn = 10; //leer
 1f2:	9a e0       	ldi	r25, 0x0A	; 10
 1f4:	90 93 67 00 	sts	0x0067, r25	; 0x800067 <min_zehn>
	}
	min_ein = min % 10;
 1f8:	9d ec       	ldi	r25, 0xCD	; 205
 1fa:	89 9f       	mul	r24, r25
 1fc:	91 2d       	mov	r25, r1
 1fe:	11 24       	eor	r1, r1
 200:	96 95       	lsr	r25
 202:	96 95       	lsr	r25
 204:	96 95       	lsr	r25
 206:	99 0f       	add	r25, r25
 208:	29 2f       	mov	r18, r25
 20a:	22 0f       	add	r18, r18
 20c:	22 0f       	add	r18, r18
 20e:	92 0f       	add	r25, r18
 210:	89 1b       	sub	r24, r25
 212:	80 93 66 00 	sts	0x0066, r24	; 0x800066 <min_ein>
	if(sek/10!=0){
 216:	6a 30       	cpi	r22, 0x0A	; 10
 218:	50 f0       	brcs	.+20     	; 0x22e <show_time+0x54>
		sek_zehn = sek/10;
 21a:	8d ec       	ldi	r24, 0xCD	; 205
 21c:	68 9f       	mul	r22, r24
 21e:	81 2d       	mov	r24, r1
 220:	11 24       	eor	r1, r1
 222:	86 95       	lsr	r24
 224:	86 95       	lsr	r24
 226:	86 95       	lsr	r24
 228:	80 93 65 00 	sts	0x0065, r24	; 0x800065 <sek_zehn>
 22c:	02 c0       	rjmp	.+4      	; 0x232 <show_time+0x58>
	}
	else{
		sek_zehn = 0;
 22e:	10 92 65 00 	sts	0x0065, r1	; 0x800065 <sek_zehn>
	}
	sek_ein = sek % 10;
 232:	8d ec       	ldi	r24, 0xCD	; 205
 234:	68 9f       	mul	r22, r24
 236:	81 2d       	mov	r24, r1
 238:	11 24       	eor	r1, r1
 23a:	86 95       	lsr	r24
 23c:	86 95       	lsr	r24
 23e:	86 95       	lsr	r24
 240:	88 0f       	add	r24, r24
 242:	98 2f       	mov	r25, r24
 244:	99 0f       	add	r25, r25
 246:	99 0f       	add	r25, r25
 248:	89 0f       	add	r24, r25
 24a:	68 1b       	sub	r22, r24
 24c:	60 93 64 00 	sts	0x0064, r22	; 0x800064 <sek_ein>
	
	show_num(1, sek_ein);
 250:	60 91 64 00 	lds	r22, 0x0064	; 0x800064 <sek_ein>
 254:	81 e0       	ldi	r24, 0x01	; 1
 256:	81 df       	rcall	.-254    	; 0x15a <show_num>
	//_delay_ms(5);
	show_num(2, sek_zehn);
 258:	60 91 65 00 	lds	r22, 0x0065	; 0x800065 <sek_zehn>
 25c:	82 e0       	ldi	r24, 0x02	; 2
 25e:	7d df       	rcall	.-262    	; 0x15a <show_num>
	//_delay_ms(5);
	show_num(3, min_ein);
 260:	60 91 66 00 	lds	r22, 0x0066	; 0x800066 <min_ein>
 264:	83 e0       	ldi	r24, 0x03	; 3
 266:	79 df       	rcall	.-270    	; 0x15a <show_num>
	//_delay_ms(5);
	show_num(4, min_zehn);
 268:	60 91 67 00 	lds	r22, 0x0067	; 0x800067 <min_zehn>
 26c:	84 e0       	ldi	r24, 0x04	; 4
 26e:	75 df       	rcall	.-278    	; 0x15a <show_num>
 270:	08 95       	ret

00000272 <init_TIME_ISR>:
uint16_t timer_overfl_counter=0;

volatile uint8_t sek=0, min=0, min_zehn=0, min_ein=0, sek_zehn=0, sek_ein=0;

void init_TIME_ISR(){
	TCCR0 = 0x03;
 272:	83 e0       	ldi	r24, 0x03	; 3
 274:	83 bf       	out	0x33, r24	; 51
	
	
	TIMSK |= (1<<TOIE0);
 276:	89 b7       	in	r24, 0x39	; 57
 278:	81 60       	ori	r24, 0x01	; 1
 27a:	89 bf       	out	0x39, r24	; 57
	
	TCNT0 = 0x83;
 27c:	83 e8       	ldi	r24, 0x83	; 131
 27e:	82 bf       	out	0x32, r24	; 50
	
	
	sei();
 280:	78 94       	sei
 282:	08 95       	ret

00000284 <__vector_9>:
}

ISR(TIMER0_OVF_vect){
 284:	1f 92       	push	r1
 286:	0f 92       	push	r0
 288:	0f b6       	in	r0, 0x3f	; 63
 28a:	0f 92       	push	r0
 28c:	11 24       	eor	r1, r1
 28e:	2f 93       	push	r18
 290:	8f 93       	push	r24
 292:	9f 93       	push	r25
	TCNT0 = 131;
 294:	83 e8       	ldi	r24, 0x83	; 131
 296:	82 bf       	out	0x32, r24	; 50
	if(timer_overfl_counter<=999){
 298:	80 91 6a 00 	lds	r24, 0x006A	; 0x80006a <timer_overfl_counter>
 29c:	90 91 6b 00 	lds	r25, 0x006B	; 0x80006b <timer_overfl_counter+0x1>
 2a0:	88 3e       	cpi	r24, 0xE8	; 232
 2a2:	23 e0       	ldi	r18, 0x03	; 3
 2a4:	92 07       	cpc	r25, r18
 2a6:	30 f4       	brcc	.+12     	; 0x2b4 <__vector_9+0x30>
		timer_overfl_counter++;
 2a8:	01 96       	adiw	r24, 0x01	; 1
 2aa:	90 93 6b 00 	sts	0x006B, r25	; 0x80006b <timer_overfl_counter+0x1>
 2ae:	80 93 6a 00 	sts	0x006A, r24	; 0x80006a <timer_overfl_counter>
 2b2:	17 c0       	rjmp	.+46     	; 0x2e2 <__vector_9+0x5e>
	}
	else{
		if(sek+1>=60){
 2b4:	80 91 69 00 	lds	r24, 0x0069	; 0x800069 <sek>
 2b8:	90 e0       	ldi	r25, 0x00	; 0
 2ba:	01 96       	adiw	r24, 0x01	; 1
 2bc:	cc 97       	sbiw	r24, 0x3c	; 60
 2be:	44 f0       	brlt	.+16     	; 0x2d0 <__vector_9+0x4c>
			sek=0;
 2c0:	10 92 69 00 	sts	0x0069, r1	; 0x800069 <sek>
			min++;
 2c4:	80 91 68 00 	lds	r24, 0x0068	; 0x800068 <min>
 2c8:	8f 5f       	subi	r24, 0xFF	; 255
 2ca:	80 93 68 00 	sts	0x0068, r24	; 0x800068 <min>
 2ce:	05 c0       	rjmp	.+10     	; 0x2da <__vector_9+0x56>
		}
		else{
			sek++;
 2d0:	80 91 69 00 	lds	r24, 0x0069	; 0x800069 <sek>
 2d4:	8f 5f       	subi	r24, 0xFF	; 255
 2d6:	80 93 69 00 	sts	0x0069, r24	; 0x800069 <sek>
		}
		timer_overfl_counter = 0;
 2da:	10 92 6b 00 	sts	0x006B, r1	; 0x80006b <timer_overfl_counter+0x1>
 2de:	10 92 6a 00 	sts	0x006A, r1	; 0x80006a <timer_overfl_counter>
	}
}
 2e2:	9f 91       	pop	r25
 2e4:	8f 91       	pop	r24
 2e6:	2f 91       	pop	r18
 2e8:	0f 90       	pop	r0
 2ea:	0f be       	out	0x3f, r0	; 63
 2ec:	0f 90       	pop	r0
 2ee:	1f 90       	pop	r1
 2f0:	18 95       	reti

000002f2 <init_IR>:
#include "ir.h"

volatile int8_t tggle_bit=0;

void init_IR(){
	DDRB = 0x01;
 2f2:	81 e0       	ldi	r24, 0x01	; 1
 2f4:	87 bb       	out	0x17, r24	; 23
	PORTB = 0x00;
 2f6:	18 ba       	out	0x18, r1	; 24
 2f8:	08 95       	ret

000002fa <init_main>:
#include "ir.h"
#include "time.h"


void init_main(){
	init_IR();
 2fa:	fb df       	rcall	.-10     	; 0x2f2 <init_IR>
	init_DISPLAY();
 2fc:	f9 de       	rcall	.-526    	; 0xf0 <init_DISPLAY>
	init_TIME_ISR();
 2fe:	b9 df       	rcall	.-142    	; 0x272 <init_TIME_ISR>
	init_ALARM_ISR();
 300:	b8 de       	rcall	.-656    	; 0x72 <init_ALARM_ISR>
 302:	08 95       	ret

00000304 <main>:
}

int main(void)
{	
	init_main();
 304:	fa df       	rcall	.-12     	; 0x2fa <init_main>
    {	
		//send_command(DEVICE_ADR, CMD);
		
		//show_time(6,23);
		
		show_time(min, sek);
 306:	60 91 69 00 	lds	r22, 0x0069	; 0x800069 <sek>
 30a:	80 91 68 00 	lds	r24, 0x0068	; 0x800068 <min>
 30e:	65 df       	rcall	.-310    	; 0x1da <show_time>
 310:	fa cf       	rjmp	.-12     	; 0x306 <main+0x2>

00000312 <_exit>:
 312:	f8 94       	cli

00000314 <__stop_program>:
 314:	ff cf       	rjmp	.-2      	; 0x314 <__stop_program>
